target datalayout = "e-m:e-p270:32:32-p271:32:32-p272:64:64-i64:64-i128:128-f80:128-n8:16:32:64-S128"
target triple = "x86_64-pc-linux-gnu"

%struct.evhttp_connection = type { %struct.anon, ptr, %struct.event, ptr, i16, ptr, i16, ptr, i64, i64, i32, %struct.timeval, %struct.timeval, %struct.timeval, i32, i32, %struct.timeval, i32, ptr, %struct.evcon_requestq, ptr, ptr, ptr, ptr, %struct.event_callback, ptr, ptr, i32, ptr }
%struct.anon = type { ptr, ptr }
%struct.event = type { %struct.event_callback, %union.anon.1, i32, i16, i16, ptr, %union.anon.3, %struct.timeval }
%union.anon.1 = type { %struct.anon.2 }
%struct.anon.2 = type { ptr, ptr }
%union.anon.3 = type { %struct.anon.4 }
%struct.anon.4 = type { %struct.anon.5, %struct.timeval }
%struct.anon.5 = type { ptr, ptr }
%struct.timeval = type { i64, i64 }
%struct.evcon_requestq = type { ptr, ptr }
%struct.event_callback = type { %struct.anon.0, i16, i8, i8, %union.anon, ptr }
%struct.anon.0 = type { ptr, ptr }
%union.anon = type { ptr }

; Function Attrs: nounwind uwtable
define i32 @evhttp_connection_set_flags(ptr noundef %0, i32 noundef %1) #0 {
  %3 = alloca i32, align 4
  %4 = alloca ptr, align 8
  %5 = alloca i32, align 4
  %6 = alloca i32, align 4
  %7 = alloca i32, align 4
  store ptr %0, ptr %4, align 8
  store i32 %1, ptr %5, align 4
  call void @llvm.lifetime.start.p0(i64 4, ptr %6) #11
  store i32 0, ptr %6, align 4
  %8 = load i32, ptr %6, align 4
  %9 = or i32 %8, 8
  store i32 %9, ptr %6, align 4
  %10 = load i32, ptr %6, align 4
  %11 = or i32 %10, 16
  store i32 %11, ptr %6, align 4
  %12 = load i32, ptr %5, align 4
  %13 = load i32, ptr %6, align 4
  %14 = xor i32 %13, -1
  %15 = and i32 %12, %14
  %16 = icmp ne i32 %15, 0
  br i1 %16, label %20, label %17

17:                                               ; preds = %2
  %18 = load i32, ptr %5, align 4
  %19 = icmp sgt i32 %18, 1048576
  br i1 %19, label %20, label %21

20:                                               ; preds = %17, %2
  store i32 1, ptr %3, align 4
  store i32 1, ptr %7, align 4
  br label %33

21:                                               ; preds = %17
  %22 = load i32, ptr %6, align 4
  %23 = xor i32 %22, -1
  %24 = load ptr, ptr %4, align 8
  %25 = getelementptr inbounds nuw %struct.evhttp_connection, ptr %24, i32 0, i32 10
  %26 = load i32, ptr %25, align 8
  %27 = and i32 %26, %23
  store i32 %27, ptr %25, align 8
  %28 = load i32, ptr %5, align 4
  %29 = load ptr, ptr %4, align 8
  %30 = getelementptr inbounds nuw %struct.evhttp_connection, ptr %29, i32 0, i32 10
  %31 = load i32, ptr %30, align 8
  %32 = or i32 %31, %28
  store i32 %32, ptr %30, align 8
  store i32 0, ptr %3, align 4
  store i32 1, ptr %7, align 4
  br label %33

33:                                               ; preds = %21, %20
  call void @llvm.lifetime.end.p0(i64 4, ptr %6) #11
  %34 = load i32, ptr %3, align 4
  ret i32 %34
}