; Function Attrs: mustprogress nofree norecurse nosync nounwind willreturn memory(argmem: readwrite) uwtable
define range(i32 0, 2) i32 @evhttp_connection_set_flags(ptr noundef captures(none) %0, i32 noundef %1) local_unnamed_addr #7 {
  %3 = and i32 %1, -25
  %4 = icmp ne i32 %3, 0
  %5 = icmp sgt i32 %1, 1048576
  %or.cond = or i1 %5, %4
  br i1 %or.cond, label %11, label %6

6:                                                ; preds = %2
  %7 = getelementptr inbounds nuw i8, ptr %0, i64 200
  %8 = load i32, ptr %7, align 8
  %9 = and i32 %8, -25
  %10 = or disjoint i32 %9, %1
  store i32 %10, ptr %7, align 8
  br label %11

11:                                               ; preds = %2, %6
  %.0 = phi i32 [ 0, %6 ], [ 1, %2 ]
  ret i32 %.0
}